Certificate:
    Data:
        Version: 3 (0x2)
        Serial Number: 4 (0x4)
    Signature Algorithm: sha256WithRSAEncryption
        Issuer: C=HR, ST=Croatia, L=Zagreb, O=Mutiny Codes doo, OU=Web/emailAddress=contact@mutiny.codes
        Validity
            Not Before: Apr 11 21:46:34 2017 GMT
            Not After : Apr  9 21:46:34 2027 GMT
        Subject: C=ML, ST=Fairyland, O=Defence against the dark arts, OU=Duels, CN=hogwarts.edu/emailAddress=contact@hogwarts.edu
        Subject Public Key Info:
            Public Key Algorithm: rsaEncryption
                Public-Key: (2048 bit)
                Modulus:
                    00:cb:50:19:72:9a:85:4b:4e:8f:87:eb:23:3e:29:
                    e9:82:07:7c:51:55:5d:49:e3:b3:ca:e5:66:fc:2f:
                    07:8e:77:46:61:94:3f:51:b1:d0:fd:93:fc:4f:df:
                    c9:89:94:c2:10:9a:60:c2:c8:78:10:2a:70:90:18:
                    0c:c2:24:a8:79:07:f0:d9:ed:f0:33:03:bb:e6:41:
                    ee:2b:f8:f8:0b:51:1f:bc:1e:a5:8e:4d:1c:8f:e6:
                    5c:00:d9:9e:c5:b9:61:fc:7f:ca:aa:68:26:ce:5c:
                    7c:95:be:f4:9d:e9:d0:09:b9:b9:5f:ca:9c:f2:d2:
                    62:51:b5:a3:ed:f8:08:0f:74:ec:be:99:3a:9b:27:
                    a6:fa:83:64:59:71:6b:8c:e4:80:9f:2d:1f:01:24:
                    4a:26:2c:38:b6:00:0b:9e:09:bf:99:4d:41:9d:c8:
                    fa:61:82:66:14:77:4d:96:f1:1c:b0:d5:d2:ab:ae:
                    9c:2f:67:20:37:df:86:bb:b2:99:7c:63:a9:9b:97:
                    38:1c:31:c5:d8:15:9d:ad:27:30:a4:f5:53:04:86:
                    b5:ac:f7:f3:f6:a0:bc:ba:58:da:1e:4c:c5:fa:02:
                    2c:89:04:95:03:59:52:7f:ee:01:3d:59:4e:de:e0:
                    04:4c:c5:65:0f:ed:4b:db:54:55:1a:c6:21:a9:1a:
                    24:fb
                Exponent: 65537 (0x10001)
        X509v3 extensions:
            X509v3 Basic Constraints: 
                CA:FALSE
            Netscape Comment: 
                OpenSSL Generated Certificate
            X509v3 Subject Key Identifier: 
                98:24:57:1A:02:83:51:08:73:15:A3:7D:64:44:FF:86:A1:6B:EA:57
            X509v3 Authority Key Identifier: 
                keyid:DF:5A:5F:C3:1B:31:6A:CE:8E:2D:AD:81:C0:2B:31:35:87:BA:E8:D3

    Signature Algorithm: sha256WithRSAEncryption
         4e:aa:a6:e6:57:70:2b:f6:e5:4d:3b:20:04:a8:b5:22:d3:ca:
         46:ba:83:90:5f:d1:18:50:24:7f:bf:d7:b2:fe:be:b1:32:b4:
         67:82:21:39:53:9e:01:06:33:63:34:c5:a1:07:45:09:90:ea:
         36:a3:f9:6a:41:e6:50:79:70:f6:19:a8:ca:1f:c1:ea:ee:f0:
         87:57:c2:b1:85:85:c5:21:a5:47:b4:49:a6:93:c1:b5:5e:02:
         5b:c0:1f:3f:71:c8:e7:39:c7:cb:7d:a5:69:1d:93:0b:e9:dc:
         7e:c5:86:81:89:cb:13:4e:31:a4:20:2b:b2:fb:d8:80:e4:38:
         b0:1e:a3:56:3c:43:a7:c8:ca:68:65:a2:a0:37:4a:cb:6e:25:
         81:25:1a:67:05:1a:40:12:78:75:95:43:d6:ea:7a:38:10:81:
         34:47:14:b1:0e:a4:90:a7:75:da:b9:4c:82:e6:2e:bc:43:53:
         28:44:8a:9e:f2:6a:e6:cc:d8:da:d0:33:de:12:a4:a3:d2:13:
         0f:5f:72:8d:de:9a:a0:77:76:b3:21:87:5c:af:eb:8d:69:09:
         09:33:ad:43:6d:b4:79:a1:22:55:e8:50:db:89:62:d8:5c:95:
         e3:fc:b0:3d:10:8d:5f:37:59:76:1f:fd:0f:b4:02:de:0c:61:
         49:33:05:fe:e0:55:8c:f5:3e:62:96:7a:ee:bf:bf:26:36:c7:
         39:1e:f0:71:da:3f:5d:aa:d4:c1:9d:66:dc:8f:8c:b5:05:ed:
         b6:06:38:4a:bd:02:06:ae:d4:47:1a:11:f7:08:43:a7:3c:ac:
         12:b9:77:56:10:90:75:3f:4d:78:ce:52:56:36:84:36:81:cf:
         30:fe:b8:f7:21:fc:f7:87:32:7e:8b:9a:c9:9d:cc:b2:01:08:
         5d:d5:7d:15:d0:4f:de:56:22:88:12:c5:c9:ef:df:9a:1d:29:
         dd:1c:5a:c7:e9:4a:df:e5:98:66:bc:2f:91:03:a5:a0:d9:c2:
         2b:4a:d0:82:13:64:74:dc:78:66:6e:4e:7d:e1:51:c9:af:8a:
         fb:4a:54:0c:cb:8f:a7:a6:01:a5:e2:f9:6c:09:cd:9d:4a:74:
         9a:52:5a:6c:09:8c:54:6b:45:eb:a1:4a:f2:89:4b:c1:57:51:
         2d:ee:7c:20:1e:ce:bd:0a:24:1d:f1:16:d7:f2:b1:96:3d:cd:
         67:9b:2d:d6:e4:e1:78:b8:16:6f:bf:a8:7e:d5:c8:55:0e:1a:
         2b:0c:aa:55:6d:1d:e5:a0:27:18:a0:1a:a2:17:42:9d:41:92:
         ee:82:17:a6:f3:86:ac:78:04:fd:c9:e2:52:e2:ce:a2:6b:59:
         80:14:ce:2b:de:73:60:6b
-----BEGIN CERTIFICATE-----
MIIFCjCCAvKgAwIBAgIBBDANBgkqhkiG9w0BAQsFADB+MQswCQYDVQQGEwJIUjEQ
MA4GA1UECAwHQ3JvYXRpYTEPMA0GA1UEBwwGWmFncmViMRkwFwYDVQQKDBBNdXRp
bnkgQ29kZXMgZG9vMQwwCgYDVQQLDANXZWIxIzAhBgkqhkiG9w0BCQEWFGNvbnRh
Y3RAbXV0aW55LmNvZGVzMB4XDTE3MDQxMTIxNDYzNFoXDTI3MDQwOTIxNDYzNFow
gZUxCzAJBgNVBAYTAk1MMRIwEAYDVQQIDAlGYWlyeWxhbmQxJjAkBgNVBAoMHURl
ZmVuY2UgYWdhaW5zdCB0aGUgZGFyayBhcnRzMQ4wDAYDVQQLDAVEdWVsczEVMBMG
A1UEAwwMaG9nd2FydHMuZWR1MSMwIQYJKoZIhvcNAQkBFhRjb250YWN0QGhvZ3dh
cnRzLmVkdTCCASIwDQYJKoZIhvcNAQEBBQADggEPADCCAQoCggEBAMtQGXKahUtO
j4frIz4p6YIHfFFVXUnjs8rlZvwvB453RmGUP1Gx0P2T/E/fyYmUwhCaYMLIeBAq
cJAYDMIkqHkH8Nnt8DMDu+ZB7iv4+AtRH7wepY5NHI/mXADZnsW5Yfx/yqpoJs5c
fJW+9J3p0Am5uV/KnPLSYlG1o+34CA907L6ZOpsnpvqDZFlxa4zkgJ8tHwEkSiYs
OLYAC54Jv5lNQZ3I+mGCZhR3TZbxHLDV0quunC9nIDffhruymXxjqZuXOBwxxdgV
na0nMKT1UwSGtaz38/agvLpY2h5MxfoCLIkElQNZUn/uAT1ZTt7gBEzFZQ/tS9tU
VRrGIakaJPsCAwEAAaN7MHkwCQYDVR0TBAIwADAsBglghkgBhvhCAQ0EHxYdT3Bl
blNTTCBHZW5lcmF0ZWQgQ2VydGlmaWNhdGUwHQYDVR0OBBYEFJgkVxoCg1EIcxWj
fWRE/4aha+pXMB8GA1UdIwQYMBaAFN9aX8MbMWrOji2tgcArMTWHuujTMA0GCSqG
SIb3DQEBCwUAA4ICAQBOqqbmV3Ar9uVNOyAEqLUi08pGuoOQX9EYUCR/v9ey/r6x
MrRngiE5U54BBjNjNMWhB0UJkOo2o/lqQeZQeXD2GajKH8Hq7vCHV8KxhYXFIaVH
tEmmk8G1XgJbwB8/ccjnOcfLfaVpHZML6dx+xYaBicsTTjGkICuy+9iA5DiwHqNW
PEOnyMpoZaKgN0rLbiWBJRpnBRpAEnh1lUPW6no4EIE0RxSxDqSQp3XauUyC5i68
Q1MoRIqe8mrmzNja0DPeEqSj0hMPX3KN3pqgd3azIYdcr+uNaQkJM61DbbR5oSJV
6FDbiWLYXJXj/LA9EI1fN1l2H/0PtALeDGFJMwX+4FWM9T5ilnruv78mNsc5HvBx
2j9dqtTBnWbcj4y1Be22BjhKvQIGrtRHGhH3CEOnPKwSuXdWEJB1P014zlJWNoQ2
gc8w/rj3Ifz3hzJ+i5rJncyyAQhd1X0V0E/eViKIEsXJ79+aHSndHFrH6Urf5Zhm
vC+RA6Wg2cIrStCCE2R03Hhmbk594VHJr4r7SlQMy4+npgGl4vlsCc2dSnSaUlps
CYxUa0XroUryiUvBV1Et7nwgHs69CiQd8RbX8rGWPc1nmy3W5OF4uBZvv6h+1chV
DhorDKpVbR3loCcYoBqiF0KdQZLughem84aseAT9yeJS4s6ia1mAFM4r3nNgaw==
-----END CERTIFICATE-----
