Certificate:
    Data:
        Version: 3 (0x2)
        Serial Number: 1 (0x1)
    Signature Algorithm: sha256WithRSAEncryption
        Issuer: C=HR, ST=Croatia, L=Zagreb, O=Mutiny Codes doo, OU=Web/emailAddress=contact@mutiny.codes
        Validity
            Not Before: Mar 28 23:52:38 2017 GMT
            Not After : Mar 26 23:52:38 2027 GMT
        Subject: C=HR, ST=Croatia, O=Mutiny Codes doo, OU=Web, CN=homework.mutiny.codes/emailAddress=lakovic.ivan@outlook.com
        Subject Public Key Info:
            Public Key Algorithm: rsaEncryption
                Public-Key: (2048 bit)
                Modulus:
                    00:d1:47:0b:81:49:a0:ad:ab:f0:6f:af:41:da:0a:
                    22:e1:bd:dd:8a:09:0d:db:2f:17:a9:85:f7:02:51:
                    4d:d0:e1:06:b5:d4:e0:0f:08:49:b4:b3:47:61:f8:
                    b9:2d:94:d6:a7:11:59:26:27:08:60:46:81:d3:05:
                    49:3a:02:f0:01:2f:54:99:cf:35:3c:19:94:96:6a:
                    60:fc:18:53:f6:e0:cf:06:e7:9c:df:c9:b4:70:6d:
                    49:39:96:e3:c0:ea:39:41:9e:8e:ec:16:a7:ed:e5:
                    e2:66:f3:3a:16:e4:72:a7:c3:9d:5c:8f:30:6e:11:
                    ba:98:79:4e:ad:8e:1f:10:2c:31:7b:73:d4:85:ca:
                    ec:ab:6c:a2:bd:3f:62:e7:3e:71:65:f2:cc:70:52:
                    1a:ee:e8:3e:f5:d1:a2:7e:8d:7c:ca:e5:f3:a8:25:
                    48:c9:c0:3e:a9:3b:dc:2e:43:59:46:98:a9:a5:3a:
                    32:1e:0c:a3:31:41:49:a2:e8:c5:62:bd:38:b2:15:
                    fe:c3:b7:4c:12:e3:2b:e9:d8:92:de:32:00:15:fd:
                    90:86:5c:8b:e2:55:5c:17:52:bc:59:d1:9c:7f:de:
                    2f:1d:e6:66:72:ca:98:5c:ff:d4:7d:62:5a:8b:ed:
                    f3:88:fc:54:6d:4a:fa:c9:70:27:eb:2b:a4:d8:9e:
                    5b:1f
                Exponent: 65537 (0x10001)
        X509v3 extensions:
            X509v3 Basic Constraints: 
                CA:FALSE
            Netscape Comment: 
                OpenSSL Generated Certificate
            X509v3 Subject Key Identifier: 
                8A:2D:B4:45:9F:85:2C:48:08:08:E3:C4:EB:3C:D5:20:B0:DA:5F:69
            X509v3 Authority Key Identifier: 
                keyid:DF:5A:5F:C3:1B:31:6A:CE:8E:2D:AD:81:C0:2B:31:35:87:BA:E8:D3

    Signature Algorithm: sha256WithRSAEncryption
         ad:fe:8d:3a:71:21:27:ef:a2:0c:32:64:79:88:44:b7:f3:84:
         3b:7f:84:69:f8:ac:82:6d:82:d1:68:a7:b1:f6:2c:15:33:b3:
         8f:6d:ec:7f:f4:fb:39:a6:b5:dc:cf:38:76:dd:12:74:88:58:
         10:e0:be:49:a5:f7:88:2e:11:8c:ca:21:9f:12:e0:f5:60:e7:
         fd:4f:c3:66:72:f3:86:f8:01:09:52:93:dc:5b:63:f5:6f:00:
         77:c5:11:75:72:03:b5:67:0d:59:4a:79:e7:fc:77:97:73:3f:
         f3:87:c8:ee:c1:24:ad:57:b6:80:64:a6:42:2e:19:0d:83:ca:
         ba:a6:d5:74:26:2e:24:62:44:87:9a:e0:a5:32:c9:9c:8f:fd:
         6e:28:da:0e:37:f0:1e:b6:ef:af:11:b9:17:96:71:40:2a:10:
         fd:88:da:ea:cb:d9:e6:d2:11:af:3f:1e:8b:b8:f8:f3:5d:c4:
         6f:62:19:b8:3e:4f:ba:f4:c5:d1:a0:90:f1:c3:85:db:6d:bd:
         06:2b:2c:5e:a5:cb:63:98:05:39:8a:4f:71:74:ce:0b:b5:29:
         ee:1b:db:24:df:56:2d:71:4b:64:a7:64:ad:55:40:16:cf:a5:
         84:8a:bf:81:ee:67:aa:dc:99:44:55:b5:72:b9:a2:fb:1b:fd:
         22:9b:13:81:73:d8:0d:32:ce:29:9c:4a:42:f1:20:b2:c8:fd:
         8d:0c:40:1d:1c:30:e0:e4:26:84:8c:a7:32:c8:fa:69:be:29:
         4f:58:65:9b:74:a3:dd:60:80:d8:2d:92:97:da:da:98:74:3e:
         52:d4:a8:14:e0:6b:06:13:23:1d:46:b5:67:e2:12:2c:69:e8:
         d2:b8:7e:f5:44:b0:fd:74:92:63:2e:cf:ac:e8:65:eb:76:30:
         81:0c:3b:3f:cc:cb:0d:f1:59:ad:91:c7:01:ee:fb:e1:5d:f8:
         5b:0b:79:87:84:ef:da:46:84:fe:c8:88:94:e8:e5:77:68:1b:
         36:7c:64:ca:8c:31:a8:75:66:05:73:6f:bc:e6:4b:62:48:1a:
         5f:5e:cc:cc:3c:7b:db:18:6c:14:59:fb:d9:81:42:03:9b:ae:
         aa:99:bd:98:1a:b7:82:40:79:26:db:8e:42:42:b5:f6:eb:43:
         25:6f:ca:5a:3c:b4:10:b2:f3:0c:d2:78:14:06:d8:ee:34:71:
         65:3d:37:a9:7b:6a:b3:b3:83:08:61:02:1e:df:8d:18:d3:51:
         ef:b8:5f:2e:a4:1a:be:e9:20:1e:be:89:3a:89:51:f8:3d:12:
         dd:af:a8:83:d1:2b:b9:24:17:b8:ac:63:42:09:d7:69:8d:e8:
         fb:3f:1f:06:7a:fa:70:8e
-----BEGIN CERTIFICATE-----
MIIFBjCCAu6gAwIBAgIBATANBgkqhkiG9w0BAQsFADB+MQswCQYDVQQGEwJIUjEQ
MA4GA1UECAwHQ3JvYXRpYTEPMA0GA1UEBwwGWmFncmViMRkwFwYDVQQKDBBNdXRp
bnkgQ29kZXMgZG9vMQwwCgYDVQQLDANXZWIxIzAhBgkqhkiG9w0BCQEWFGNvbnRh
Y3RAbXV0aW55LmNvZGVzMB4XDTE3MDMyODIzNTIzOFoXDTI3MDMyNjIzNTIzOFow
gZExCzAJBgNVBAYTAkhSMRAwDgYDVQQIDAdDcm9hdGlhMRkwFwYDVQQKDBBNdXRp
bnkgQ29kZXMgZG9vMQwwCgYDVQQLDANXZWIxHjAcBgNVBAMMFWhvbWV3b3JrLm11
dGlueS5jb2RlczEnMCUGCSqGSIb3DQEJARYYbGFrb3ZpYy5pdmFuQG91dGxvb2su
Y29tMIIBIjANBgkqhkiG9w0BAQEFAAOCAQ8AMIIBCgKCAQEA0UcLgUmgravwb69B
2goi4b3digkN2y8XqYX3AlFN0OEGtdTgDwhJtLNHYfi5LZTWpxFZJicIYEaB0wVJ
OgLwAS9Umc81PBmUlmpg/BhT9uDPBuec38m0cG1JOZbjwOo5QZ6O7Ban7eXiZvM6
FuRyp8OdXI8wbhG6mHlOrY4fECwxe3PUhcrsq2yivT9i5z5xZfLMcFIa7ug+9dGi
fo18yuXzqCVIycA+qTvcLkNZRpippToyHgyjMUFJoujFYr04shX+w7dMEuMr6diS
3jIAFf2QhlyL4lVcF1K8WdGcf94vHeZmcsqYXP/UfWJai+3ziPxUbUr6yXAn6yuk
2J5bHwIDAQABo3sweTAJBgNVHRMEAjAAMCwGCWCGSAGG+EIBDQQfFh1PcGVuU1NM
IEdlbmVyYXRlZCBDZXJ0aWZpY2F0ZTAdBgNVHQ4EFgQUii20RZ+FLEgICOPE6zzV
ILDaX2kwHwYDVR0jBBgwFoAU31pfwxsxas6OLa2BwCsxNYe66NMwDQYJKoZIhvcN
AQELBQADggIBAK3+jTpxISfvogwyZHmIRLfzhDt/hGn4rIJtgtFop7H2LBUzs49t
7H/0+zmmtdzPOHbdEnSIWBDgvkml94guEYzKIZ8S4PVg5/1Pw2Zy84b4AQlSk9xb
Y/VvAHfFEXVyA7VnDVlKeef8d5dzP/OHyO7BJK1XtoBkpkIuGQ2Dyrqm1XQmLiRi
RIea4KUyyZyP/W4o2g438B62768RuReWcUAqEP2I2urL2ebSEa8/Hou4+PNdxG9i
Gbg+T7r0xdGgkPHDhdttvQYrLF6ly2OYBTmKT3F0zgu1Ke4b2yTfVi1xS2SnZK1V
QBbPpYSKv4HuZ6rcmURVtXK5ovsb/SKbE4Fz2A0yzimcSkLxILLI/Y0MQB0cMODk
JoSMpzLI+mm+KU9YZZt0o91ggNgtkpfa2ph0PlLUqBTgawYTIx1GtWfiEixp6NK4
fvVEsP10kmMuz6zoZet2MIEMOz/Myw3xWa2RxwHu++Fd+FsLeYeE79pGhP7IiJTo
5XdoGzZ8ZMqMMah1ZgVzb7zmS2JIGl9ezMw8e9sYbBRZ+9mBQgObrqqZvZgat4JA
eSbbjkJCtfbrQyVvylo8tBCy8wzSeBQG2O40cWU9N6l7arOzgwhhAh7fjRjTUe+4
Xy6kGr7pIB6+iTqJUfg9Et2vqIPRK7kkF7isY0IJ12mN6Ps/HwZ6+nCO
-----END CERTIFICATE-----
